(dp0
I10
F0.0016570091247558594
sI12
F0.0007789134979248047
sI14
F0.0032618045806884766
sI16
F0.00031685829162597656
sI18
F0.0006659030914306641
sI20
F0.010751008987426758
sI22
F0.0018491744995117188
sI24
F0.00032019615173339844
sI26
F0.0302579402923584
sI28
F0.003431081771850586
sI30
F0.0023391246795654297
sI32
F0.02272796630859375
sI34
F117.62951397895813
sI36
F0.0030999183654785156
sI38
F0.002579927444458008
sI40
F0.6102437973022461
sI42
F3.6464970111846924
sI44
F0.004358053207397461
sI46
F0.05037379264831543
sI48
F0.1066429615020752
sI50
F0.004686832427978516
sI52
F0.0010390281677246094
sI54
F0.06117701530456543
sI56
F0.11877989768981934
sI58
F0.5476710796356201
sI60
F3.2099199295043945
sI62
F0.08301997184753418
sI64
F0.005970954895019531
sI66
F0.008111000061035156
sI68
F0.16428399085998535
sI70
F0.04531216621398926
s.