(dp0
I32
F2.2903780937194824
sI10
F0.012788057327270508
sI12
F0.0065419673919677734
sI14
F0.09530496597290039
sI16
F0.0006630420684814453
sI18
F0.002994060516357422
sI20
F2.7961411476135254
sI22
F0.11670804023742676
sI24
F0.0007779598236083984
sI26
F2.546485185623169
sI28
F0.09029483795166016
sI30
F0.21637892723083496
s.