(dp0
I32
F2.229421854019165
sI10
F0.012546062469482422
sI12
F0.006453990936279297
sI14
F0.09327483177185059
sI16
F0.0006461143493652344
sI18
F0.002939939498901367
sI20
F2.847872018814087
sI22
F0.1113579273223877
sI24
F0.0006430149078369141
sI26
F2.496145009994507
sI28
F0.08734011650085449
sI30
F0.207489013671875
s.