(dp0
I10
(lp1
I13
aI7
asI12
(lp2
I12
aI6
asI14
(lp3
I10
aI5
asI16
(lp4
I4
aI2
asI18
(lp5
I18
aI10
asI20
(lp6
I9
aI4
asI22
(lp7
I9
aI4
asI24
(lp8
I14
aI9
asI26
(lp9
I9
aI4
asI28
(lp10
I15
aI8
asI30
(lp11
I10
aI5
asI32
(lp12
I16
aI9
asI34
(lp13
I27
aI16
asI36
(lp14
I16
aI9
asI38
(lp15
I13
aI7
asI40
(lp16
I23
aI12
asI42
(lp17
I4
aI2
asI44
(lp18
I39
aI22
asI46
(lp19
I22
aI13
asI48
(lp20
I13
aI7
asI50
(lp21
I47
aI27
asI52
(lp22
I55
aI31
asI54
(lp23
I129
aI76
asI56
(lp24
I57
aI32
asI58
(lp25
I158
aI94
asI60
(lp26
I10
aI5
asI62
(lp27
I41
aI22
asI64
(lp28
I105
aI61
asI66
(lp29
I5
aI3
asI68
(lp30
I21
aI11
asI70
(lp31
I64
aI36
as.