(dp0
I10
F0.0022840499877929688
sI12
F0.0014128684997558594
sI14
F0.004004955291748047
sI16
F0.0005500316619873047
sI18
F0.001238107681274414
sI20
F0.010030031204223633
sI22
F0.0034799575805664062
sI24
F0.0005648136138916016
sI26
F0.014896869659423828
sI28
F0.0055048465728759766
sI30
F0.004411935806274414
sI32
F0.020451068878173828
sI34
F3.051257848739624
sI36
F0.0030798912048339844
sI38
F0.0035228729248046875
sI40
F0.05288100242614746
sI42
F0.12269711494445801
sI44
F0.004491090774536133
sI46
F0.01863694190979004
sI48
F0.009751081466674805
sI50
F0.002833843231201172
sI52
F0.0010039806365966797
sI54
F0.008867025375366211
sI56
F0.025825023651123047
sI58
F0.020308971405029297
sI60
F0.5221550464630127
sI62
F0.01630115509033203
sI64
F0.003496885299682617
sI66
F0.006006956100463867
sI68
F0.054132938385009766
sI70
F0.009675025939941406
s.