(dp0
I10
F0.0014028549194335938
sI12
F0.0010449886322021484
sI14
F0.002374887466430664
sI16
F0.00038504600524902344
sI18
F0.0007750988006591797
sI20
F0.02548503875732422
sI22
F0.002093076705932617
sI24
F0.00023698806762695312
sI26
F0.013180971145629883
sI28
F0.0034029483795166016
sI30
F0.0040209293365478516
sI32
F0.015820026397705078
sI34
F11.490429878234863
sI36
F0.0019600391387939453
sI38
F0.001984119415283203
sI40
F0.07577180862426758
sI42
F0.7855591773986816
sI44
F0.0068798065185546875
sI46
F0.060115814208984375
sI48
F0.033798933029174805
sI50
F0.005342006683349609
sI52
F0.001180887222290039
sI54
F0.02067708969116211
sI56
F0.0794529914855957
sI58
F0.009742975234985352
sI60
F0.9090769290924072
sI62
F0.04509305953979492
sI64
F0.0033681392669677734
sI66
F0.004477024078369141
sI68
F0.13578391075134277
sI70
F0.006862163543701172
s.