(dp0
I10
F0.002710103988647461
sI12
F0.0008311271667480469
sI14
F0.003813028335571289
sI16
F0.0003211498260498047
sI18
F0.0007719993591308594
sI20
F0.011351823806762695
sI22
F0.0019578933715820312
sI24
F0.00033211708068847656
sI26
F0.03201794624328613
sI28
F0.0037059783935546875
sI30
F0.002454996109008789
sI32
F0.023941993713378906
sI34
F119.76954889297485
sI36
F0.0030660629272460938
sI38
F0.002402067184448242
sI40
F0.6163628101348877
sI42
F3.7411770820617676
sI44
F0.0043179988861083984
sI46
F0.05105113983154297
sI48
F0.10761713981628418
sI50
F0.004673004150390625
sI52
F0.0010750293731689453
sI54
F0.06211686134338379
sI56
F0.1201779842376709
sI58
F0.5585110187530518
sI60
F3.3209900856018066
sI62
F0.08493304252624512
sI64
F0.0059490203857421875
sI66
F0.008165121078491211
sI68
F0.16735100746154785
sI70
F0.04614996910095215
s.