(dp0
I10
(lp1
I13
aI7
asI12
(lp2
I12
aI6
asI14
(lp3
I10
aI5
asI16
(lp4
I4
aI2
asI18
(lp5
I24
aI12
asI20
(lp6
I9
aI4
asI22
(lp7
I9
aI4
asI24
(lp8
I16
aI10
asI26
(lp9
I9
aI4
asI28
(lp10
I15
aI8
asI30
(lp11
I10
aI5
asI32
(lp12
I30
aI15
asI34
(lp13
I36
aI20
asI36
(lp14
I16
aI9
asI38
(lp15
I16
aI8
asI40
(lp16
I54
aI30
asI42
(lp17
I4
aI2
asI44
(lp18
I79
aI46
asI46
(lp19
I124
aI71
asI48
(lp20
I13
aI7
asI50
(lp21
I191
aI112
asI52
(lp22
I330
aI201
asI54
(lp23
I422
aI256
asI56
(lp24
I106
aI64
asI58
(lp25
I326
aI197
asI60
(lp26
I12
aI6
asI62
(lp27
I167
aI96
asI64
(lp28
I370
aI223
asI66
(lp29
I5
aI3
asI68
(lp30
I30
aI16
asI70
(lp31
I154
aI90
as.