(dp0
I10
(lp1
I106
aI63
asI12
(lp2
I70
aI41
asI14
(lp3
I46
aI29
asI16
(lp4
I8
aI4
asI18
(lp5
I271
aI156
asI20
(lp6
I28
aI17
asI22
(lp7
I30
aI17
asI24
(lp8
I396
aI252
asI26
(lp9
I28
aI17
asI28
(lp10
I270
aI169
asI30
(lp11
I38
aI21
asI32
(lp12
I294
aI169
asI34
(lp13
I272
aI155
asI36
(lp14
I366
aI230
asI38
(lp15
I93
aI53
asI40
(lp16
I609
aI377
asI42
(lp17
I8
aI4
asI44
(lp18
I1230
aI774
asI46
(lp19
I1994
aI1206
asI48
(lp20
I147
aI88
asI50
(lp21
I3298
aI2094
asI52
(lp22
I6015
aI3811
asI54
(lp23
I6095
aI3871
asI56
(lp24
I1618
aI1004
asI58
(lp25
I4840
aI3116
asI60
(lp26
I46
aI29
asI62
(lp27
I2314
aI1436
as.