(dp0
I32
(lp1
I294
aI169
asI48
(lp2
I147
aI88
asI34
(lp3
I272
aI155
asI36
(lp4
I366
aI230
asI38
(lp5
I93
aI53
asI40
(lp6
I609
aI377
asI44
(lp7
I1230
aI774
asI10
(lp8
I106
aI63
asI12
(lp9
I70
aI41
asI50
(lp10
I3298
aI2094
asI14
(lp11
I46
aI29
asI16
(lp12
I8
aI4
asI18
(lp13
I271
aI156
asI20
(lp14
I28
aI17
asI46
(lp15
I1994
aI1206
asI22
(lp16
I30
aI17
asI24
(lp17
I396
aI252
asI26
(lp18
I28
aI17
asI28
(lp19
I270
aI169
asI42
(lp20
I8
aI4
asI30
(lp21
I38
aI21
as.